target datalayout = "e-m:e-p270:32:32-p271:32:32-p272:64:64-i64:64-i128:128-f80:128-n8:16:32:64-S128"
target triple = "x86_64-pc-linux-gnu"

@proto_register_gsm_rlcmac.ett = internal global [4 x ptr] [ptr @ett_gsm_rlcmac, ptr @ett_gsm_rlcmac_data, ptr @ett_data_segments, ptr @ett_gsm_rlcmac_container], align 16
@.str.2292 = private unnamed_addr constant [57 x i8] c"Radio Link Control, Medium Access Control, 3GPP TS44.060\00", align 1
@.str.2293 = private unnamed_addr constant [12 x i8] c"GSM RLC MAC\00", align 1
@.str.2294 = private unnamed_addr constant [11 x i8] c"gsm_rlcmac\00", align 1
@proto_gsm_rlcmac = internal global i32 0, align 4
@.str.2295 = private unnamed_addr constant [14 x i8] c"gsm_rlcmac_ul\00", align 1
@.str.2296 = private unnamed_addr constant [14 x i8] c"gsm_rlcmac_dl\00", align 1
@.str.2297 = private unnamed_addr constant [17 x i8] c"gsm_ec_rlcmac_ul\00", align 1
@.str.2298 = private unnamed_addr constant [17 x i8] c"gsm_ec_rlcmac_dl\00", align 1

; Function Attrs: null_pointer_is_valid sspstrong uwtable
define hidden void @proto_register_gsm_rlcmac() #0 {
  %1 = alloca ptr, align 8
  call void @llvm.lifetime.start.p0(i64 8, ptr %1) #5
  %2 = call i32 @proto_register_protocol(ptr noundef @.str.2292, ptr noundef @.str.2293, ptr noundef @.str.2294)
  store i32 %2, ptr @proto_gsm_rlcmac, align 4
  %3 = load i32, ptr @proto_gsm_rlcmac, align 4
  call void @proto_register_field_array(i32 noundef %3, ptr noundef @proto_register_gsm_rlcmac.hf, i32 noundef 1290)
  call void @proto_register_subtree_array(ptr noundef @proto_register_gsm_rlcmac.ett, i32 noundef 4)
  %4 = load i32, ptr @proto_gsm_rlcmac, align 4
  %5 = call ptr @expert_register_protocol(i32 noundef %4)
  store ptr %5, ptr %1, align 8
  %6 = load ptr, ptr %1, align 8
  call void @expert_register_field_array(ptr noundef %6, ptr noundef @proto_register_gsm_rlcmac.ei, i32 noundef 8)
  %7 = load i32, ptr @proto_gsm_rlcmac, align 4
  %8 = call ptr @register_dissector(ptr noundef @.str.2295, ptr noundef @dissect_gsm_rlcmac_uplink, i32 noundef %7)
  %9 = load i32, ptr @proto_gsm_rlcmac, align 4
  %10 = call ptr @register_dissector(ptr noundef @.str.2296, ptr noundef @dissect_gsm_rlcmac_downlink, i32 noundef %9)
  %11 = load i32, ptr @proto_gsm_rlcmac, align 4
  %12 = call ptr @register_dissector(ptr noundef @.str.2297, ptr noundef @dissect_gsm_ec_rlcmac_uplink, i32 noundef %11)
  %13 = load i32, ptr @proto_gsm_rlcmac, align 4
  %14 = call ptr @register_dissector(ptr noundef @.str.2298, ptr noundef @dissect_gsm_ec_rlcmac_downlink, i32 noundef %13)
  call void @llvm.lifetime.end.p0(i64 8, ptr %1) #5
  ret void
}