; Function Attrs: null_pointer_is_valid sspstrong uwtable
define hidden void @proto_register_gsm_rlcmac() local_unnamed_addr #0 {
  %1 = tail call i32 @proto_register_protocol(ptr noundef nonnull @.str.2292, ptr noundef nonnull @.str.2293, ptr noundef nonnull @.str.2294)
  store i32 %1, ptr @proto_gsm_rlcmac, align 4
  tail call void @proto_register_field_array(i32 noundef %1, ptr noundef nonnull @proto_register_gsm_rlcmac.hf, i32 noundef 1290)
  tail call void @proto_register_subtree_array(ptr noundef nonnull @proto_register_gsm_rlcmac.ett, i32 noundef 4)
  %2 = load i32, ptr @proto_gsm_rlcmac, align 4
  %3 = tail call ptr @expert_register_protocol(i32 noundef %2)
  tail call void @expert_register_field_array(ptr noundef %3, ptr noundef nonnull @proto_register_gsm_rlcmac.ei, i32 noundef 8)
  %4 = load i32, ptr @proto_gsm_rlcmac, align 4
  %5 = tail call ptr @register_dissector(ptr noundef nonnull @.str.2295, ptr noundef nonnull @dissect_gsm_rlcmac_uplink, i32 noundef %4)
  %6 = load i32, ptr @proto_gsm_rlcmac, align 4
  %7 = tail call ptr @register_dissector(ptr noundef nonnull @.str.2296, ptr noundef nonnull @dissect_gsm_rlcmac_downlink, i32 noundef %6)
  %8 = load i32, ptr @proto_gsm_rlcmac, align 4
  %9 = tail call ptr @register_dissector(ptr noundef nonnull @.str.2297, ptr noundef nonnull @dissect_gsm_ec_rlcmac_uplink, i32 noundef %8)
  %10 = load i32, ptr @proto_gsm_rlcmac, align 4
  %11 = tail call ptr @register_dissector(ptr noundef nonnull @.str.2298, ptr noundef nonnull @dissect_gsm_ec_rlcmac_downlink, i32 noundef %10)
  ret void
}